                                      1 ;--------------------------------------------------------
                                      2 ; File Created by SDCC : free open source ANSI-C Compiler
                                      3 ; Version 4.2.0 #13081 (Linux)
                                      4 ;--------------------------------------------------------
                                      5 	.module timer_hal
                                      6 	.optsdcc -mmcs51 --model-medium
                                      7 	
                                      8 ;--------------------------------------------------------
                                      9 ; Public variables in this module
                                     10 ;--------------------------------------------------------
                                     11 	.globl _S1SM0_FE
                                     12 	.globl _T1IF
                                     13 	.globl _T1R
                                     14 	.globl _T0IF
                                     15 	.globl _T0R
                                     16 	.globl _CF
                                     17 	.globl _CR
                                     18 	.globl _CCF1
                                     19 	.globl _CCF0
                                     20 	.globl _CY
                                     21 	.globl _AC
                                     22 	.globl _F0
                                     23 	.globl _RS1
                                     24 	.globl _RS0
                                     25 	.globl _OV
                                     26 	.globl _F1
                                     27 	.globl _P
                                     28 	.globl _EA
                                     29 	.globl _INT1IF
                                     30 	.globl _IT1
                                     31 	.globl _INT0IF
                                     32 	.globl _IT0
                                     33 	.globl _P5_5
                                     34 	.globl _P5_4
                                     35 	.globl _P5_3
                                     36 	.globl _P5_2
                                     37 	.globl _P5_1
                                     38 	.globl _P5_0
                                     39 	.globl _P4_7
                                     40 	.globl _P4_6
                                     41 	.globl _P4_5
                                     42 	.globl _P4_4
                                     43 	.globl _P4_3
                                     44 	.globl _P4_2
                                     45 	.globl _P4_1
                                     46 	.globl _P4_0
                                     47 	.globl _P3_7
                                     48 	.globl _P3_6
                                     49 	.globl _P3_5
                                     50 	.globl _P3_4
                                     51 	.globl _P3_3
                                     52 	.globl _P3_2
                                     53 	.globl _P3_1
                                     54 	.globl _P3_0
                                     55 	.globl _P2_7
                                     56 	.globl _P2_6
                                     57 	.globl _P2_5
                                     58 	.globl _P2_4
                                     59 	.globl _P2_3
                                     60 	.globl _P2_2
                                     61 	.globl _P2_1
                                     62 	.globl _P2_0
                                     63 	.globl _P1_7
                                     64 	.globl _P1_6
                                     65 	.globl _P1_5
                                     66 	.globl _P1_4
                                     67 	.globl _P1_3
                                     68 	.globl _P1_2
                                     69 	.globl _P1_1
                                     70 	.globl _P1_0
                                     71 	.globl _P0_7
                                     72 	.globl _P0_6
                                     73 	.globl _P0_5
                                     74 	.globl _P0_4
                                     75 	.globl _P0_3
                                     76 	.globl _P0_2
                                     77 	.globl _P0_1
                                     78 	.globl _P0_0
                                     79 	.globl _S2BUF
                                     80 	.globl _S2CON
                                     81 	.globl _S1BUF
                                     82 	.globl _S1CON
                                     83 	.globl _SADEN
                                     84 	.globl _SADDR
                                     85 	.globl _WDT_CONTR
                                     86 	.globl _AUXR
                                     87 	.globl _BRT
                                     88 	.globl _T1
                                     89 	.globl _T1H
                                     90 	.globl _T1L
                                     91 	.globl _T0
                                     92 	.globl _T0H
                                     93 	.globl _T0L
                                     94 	.globl _TMOD
                                     95 	.globl _TCON
                                     96 	.globl _CLKDIV
                                     97 	.globl _SPDAT
                                     98 	.globl _SPCTL
                                     99 	.globl _SPSTAT
                                    100 	.globl _PCA_PWM1
                                    101 	.globl _PCA_PWM0
                                    102 	.globl _CCAP1
                                    103 	.globl _CCAP0
                                    104 	.globl _CCAP1H
                                    105 	.globl _CCAP0H
                                    106 	.globl _CCAP1L
                                    107 	.globl _CCAP0L
                                    108 	.globl _PCA_CTR
                                    109 	.globl _CH
                                    110 	.globl _CL
                                    111 	.globl _CCAPM1
                                    112 	.globl _CCAPM0
                                    113 	.globl _CMOD
                                    114 	.globl _CCON
                                    115 	.globl _BUS_SPEED
                                    116 	.globl _P4SW
                                    117 	.globl _P1ASF
                                    118 	.globl _P_SW1
                                    119 	.globl _WAKE_CLKO
                                    120 	.globl _PCON
                                    121 	.globl _B
                                    122 	.globl _ACC
                                    123 	.globl _PSW
                                    124 	.globl _SP
                                    125 	.globl _IP2H
                                    126 	.globl _IP2L
                                    127 	.globl _IP1H
                                    128 	.globl _IP1L
                                    129 	.globl _IE2
                                    130 	.globl _IE1
                                    131 	.globl _IAP_CONTR
                                    132 	.globl _IAP_TRIG
                                    133 	.globl _IAP_CMD
                                    134 	.globl _IAP_ADDR
                                    135 	.globl _IAP_ADDRL
                                    136 	.globl _IAP_ADDRH
                                    137 	.globl _IAP_DATA
                                    138 	.globl _P5M0
                                    139 	.globl _P5M1
                                    140 	.globl _P5
                                    141 	.globl _P4M0
                                    142 	.globl _P4M1
                                    143 	.globl _P4
                                    144 	.globl _P3M0
                                    145 	.globl _P3M1
                                    146 	.globl _P3
                                    147 	.globl _P2M0
                                    148 	.globl _P2M1
                                    149 	.globl _P2
                                    150 	.globl _P1M0
                                    151 	.globl _P1M1
                                    152 	.globl _P1
                                    153 	.globl _P0M0
                                    154 	.globl _P0M1
                                    155 	.globl _P0
                                    156 	.globl _DPS
                                    157 	.globl _DP
                                    158 	.globl _DPH
                                    159 	.globl _DPL
                                    160 	.globl _ADC_RESL
                                    161 	.globl _ADC_RESH
                                    162 	.globl _ADC_CONTR
                                    163 	.globl _startWatchdog_PARM_2
                                    164 	.globl _startTimer_PARM_5
                                    165 	.globl _startTimer_PARM_4
                                    166 	.globl _startTimer_PARM_3
                                    167 	.globl _startTimer_PARM_2
                                    168 	.globl _baudRateToSysclkDivisor
                                    169 	.globl _frequencyToSysclkDivisor
                                    170 	.globl _startTimer
                                    171 	.globl _startWatchdog
                                    172 	.globl _clearWatchdog
                                    173 ;--------------------------------------------------------
                                    174 ; special function registers
                                    175 ;--------------------------------------------------------
                                    176 	.area RSEG    (ABS,DATA)
      000000                        177 	.org 0x0000
                           0000BC   178 _ADC_CONTR	=	0x00bc
                           0000BD   179 _ADC_RESH	=	0x00bd
                           0000BE   180 _ADC_RESL	=	0x00be
                           000082   181 _DPL	=	0x0082
                           000083   182 _DPH	=	0x0083
                           008382   183 _DP	=	0x8382
                           0000A2   184 _DPS	=	0x00a2
                           000080   185 _P0	=	0x0080
                           000093   186 _P0M1	=	0x0093
                           000094   187 _P0M0	=	0x0094
                           000090   188 _P1	=	0x0090
                           000091   189 _P1M1	=	0x0091
                           000092   190 _P1M0	=	0x0092
                           0000A0   191 _P2	=	0x00a0
                           000095   192 _P2M1	=	0x0095
                           000096   193 _P2M0	=	0x0096
                           0000B0   194 _P3	=	0x00b0
                           0000B1   195 _P3M1	=	0x00b1
                           0000B2   196 _P3M0	=	0x00b2
                           0000C0   197 _P4	=	0x00c0
                           0000B3   198 _P4M1	=	0x00b3
                           0000B4   199 _P4M0	=	0x00b4
                           0000C8   200 _P5	=	0x00c8
                           0000C9   201 _P5M1	=	0x00c9
                           0000CA   202 _P5M0	=	0x00ca
                           0000C2   203 _IAP_DATA	=	0x00c2
                           0000C3   204 _IAP_ADDRH	=	0x00c3
                           0000C4   205 _IAP_ADDRL	=	0x00c4
                           00C3C4   206 _IAP_ADDR	=	0xc3c4
                           0000C5   207 _IAP_CMD	=	0x00c5
                           0000C6   208 _IAP_TRIG	=	0x00c6
                           0000C7   209 _IAP_CONTR	=	0x00c7
                           0000A8   210 _IE1	=	0x00a8
                           0000AF   211 _IE2	=	0x00af
                           0000B8   212 _IP1L	=	0x00b8
                           0000B7   213 _IP1H	=	0x00b7
                           0000B5   214 _IP2L	=	0x00b5
                           0000B6   215 _IP2H	=	0x00b6
                           000081   216 _SP	=	0x0081
                           0000D0   217 _PSW	=	0x00d0
                           0000E0   218 _ACC	=	0x00e0
                           0000F0   219 _B	=	0x00f0
                           000087   220 _PCON	=	0x0087
                           00008F   221 _WAKE_CLKO	=	0x008f
                           0000A2   222 _P_SW1	=	0x00a2
                           00009D   223 _P1ASF	=	0x009d
                           0000BB   224 _P4SW	=	0x00bb
                           0000A1   225 _BUS_SPEED	=	0x00a1
                           0000D8   226 _CCON	=	0x00d8
                           0000D9   227 _CMOD	=	0x00d9
                           0000DA   228 _CCAPM0	=	0x00da
                           0000DB   229 _CCAPM1	=	0x00db
                           0000E9   230 _CL	=	0x00e9
                           0000F9   231 _CH	=	0x00f9
                           00F9E9   232 _PCA_CTR	=	0xf9e9
                           0000EA   233 _CCAP0L	=	0x00ea
                           0000EB   234 _CCAP1L	=	0x00eb
                           0000FA   235 _CCAP0H	=	0x00fa
                           0000FB   236 _CCAP1H	=	0x00fb
                           00FAEA   237 _CCAP0	=	0xfaea
                           00FBEB   238 _CCAP1	=	0xfbeb
                           0000F2   239 _PCA_PWM0	=	0x00f2
                           0000F3   240 _PCA_PWM1	=	0x00f3
                           0000CD   241 _SPSTAT	=	0x00cd
                           0000CE   242 _SPCTL	=	0x00ce
                           0000CF   243 _SPDAT	=	0x00cf
                           000097   244 _CLKDIV	=	0x0097
                           000088   245 _TCON	=	0x0088
                           000089   246 _TMOD	=	0x0089
                           00008A   247 _T0L	=	0x008a
                           00008C   248 _T0H	=	0x008c
                           008C8A   249 _T0	=	0x8c8a
                           00008B   250 _T1L	=	0x008b
                           00008D   251 _T1H	=	0x008d
                           008D8B   252 _T1	=	0x8d8b
                           00009C   253 _BRT	=	0x009c
                           00008E   254 _AUXR	=	0x008e
                           0000C1   255 _WDT_CONTR	=	0x00c1
                           0000A9   256 _SADDR	=	0x00a9
                           0000B9   257 _SADEN	=	0x00b9
                           000098   258 _S1CON	=	0x0098
                           000099   259 _S1BUF	=	0x0099
                           00009A   260 _S2CON	=	0x009a
                           00009B   261 _S2BUF	=	0x009b
                                    262 ;--------------------------------------------------------
                                    263 ; special function bits
                                    264 ;--------------------------------------------------------
                                    265 	.area RSEG    (ABS,DATA)
      000000                        266 	.org 0x0000
                           000080   267 _P0_0	=	0x0080
                           000081   268 _P0_1	=	0x0081
                           000082   269 _P0_2	=	0x0082
                           000083   270 _P0_3	=	0x0083
                           000084   271 _P0_4	=	0x0084
                           000085   272 _P0_5	=	0x0085
                           000086   273 _P0_6	=	0x0086
                           000087   274 _P0_7	=	0x0087
                           000090   275 _P1_0	=	0x0090
                           000091   276 _P1_1	=	0x0091
                           000092   277 _P1_2	=	0x0092
                           000093   278 _P1_3	=	0x0093
                           000094   279 _P1_4	=	0x0094
                           000095   280 _P1_5	=	0x0095
                           000096   281 _P1_6	=	0x0096
                           000097   282 _P1_7	=	0x0097
                           0000A0   283 _P2_0	=	0x00a0
                           0000A1   284 _P2_1	=	0x00a1
                           0000A2   285 _P2_2	=	0x00a2
                           0000A3   286 _P2_3	=	0x00a3
                           0000A4   287 _P2_4	=	0x00a4
                           0000A5   288 _P2_5	=	0x00a5
                           0000A6   289 _P2_6	=	0x00a6
                           0000A7   290 _P2_7	=	0x00a7
                           0000B0   291 _P3_0	=	0x00b0
                           0000B1   292 _P3_1	=	0x00b1
                           0000B2   293 _P3_2	=	0x00b2
                           0000B3   294 _P3_3	=	0x00b3
                           0000B4   295 _P3_4	=	0x00b4
                           0000B5   296 _P3_5	=	0x00b5
                           0000B6   297 _P3_6	=	0x00b6
                           0000B7   298 _P3_7	=	0x00b7
                           0000C0   299 _P4_0	=	0x00c0
                           0000C1   300 _P4_1	=	0x00c1
                           0000C2   301 _P4_2	=	0x00c2
                           0000C3   302 _P4_3	=	0x00c3
                           0000C4   303 _P4_4	=	0x00c4
                           0000C5   304 _P4_5	=	0x00c5
                           0000C6   305 _P4_6	=	0x00c6
                           0000C7   306 _P4_7	=	0x00c7
                           0000C8   307 _P5_0	=	0x00c8
                           0000C9   308 _P5_1	=	0x00c9
                           0000CA   309 _P5_2	=	0x00ca
                           0000CB   310 _P5_3	=	0x00cb
                           0000CC   311 _P5_4	=	0x00cc
                           0000CD   312 _P5_5	=	0x00cd
                           000088   313 _IT0	=	0x0088
                           000089   314 _INT0IF	=	0x0089
                           00008A   315 _IT1	=	0x008a
                           00008B   316 _INT1IF	=	0x008b
                           0000AF   317 _EA	=	0x00af
                           0000D0   318 _P	=	0x00d0
                           0000D1   319 _F1	=	0x00d1
                           0000D2   320 _OV	=	0x00d2
                           0000D3   321 _RS0	=	0x00d3
                           0000D4   322 _RS1	=	0x00d4
                           0000D5   323 _F0	=	0x00d5
                           0000D6   324 _AC	=	0x00d6
                           0000D7   325 _CY	=	0x00d7
                           0000D8   326 _CCF0	=	0x00d8
                           0000D9   327 _CCF1	=	0x00d9
                           0000DE   328 _CR	=	0x00de
                           0000DF   329 _CF	=	0x00df
                           00008C   330 _T0R	=	0x008c
                           00008D   331 _T0IF	=	0x008d
                           00008E   332 _T1R	=	0x008e
                           00008F   333 _T1IF	=	0x008f
                           00009F   334 _S1SM0_FE	=	0x009f
                                    335 ;--------------------------------------------------------
                                    336 ; overlayable register banks
                                    337 ;--------------------------------------------------------
                                    338 	.area REG_BANK_0	(REL,OVR,DATA)
      000000                        339 	.ds 8
                                    340 ;--------------------------------------------------------
                                    341 ; internal ram data
                                    342 ;--------------------------------------------------------
                                    343 	.area DSEG    (DATA)
                                    344 ;--------------------------------------------------------
                                    345 ; overlayable items in internal ram
                                    346 ;--------------------------------------------------------
                                    347 ;--------------------------------------------------------
                                    348 ; indirectly addressable internal ram data
                                    349 ;--------------------------------------------------------
                                    350 	.area ISEG    (DATA)
                                    351 ;--------------------------------------------------------
                                    352 ; absolute internal ram data
                                    353 ;--------------------------------------------------------
                                    354 	.area IABS    (ABS,DATA)
                                    355 	.area IABS    (ABS,DATA)
                                    356 ;--------------------------------------------------------
                                    357 ; bit data
                                    358 ;--------------------------------------------------------
                                    359 	.area BSEG    (BIT)
                                    360 ;--------------------------------------------------------
                                    361 ; paged external ram data
                                    362 ;--------------------------------------------------------
                                    363 	.area PSEG    (PAG,XDATA)
      000000                        364 _startTimer_PARM_2:
      000000                        365 	.ds 4
      000004                        366 _startTimer_PARM_3:
      000004                        367 	.ds 1
      000005                        368 _startTimer_PARM_4:
      000005                        369 	.ds 1
      000006                        370 _startTimer_PARM_5:
      000006                        371 	.ds 1
      000007                        372 _startTimer_rc_65536_10:
      000007                        373 	.ds 1
      000008                        374 _startWatchdog_PARM_2:
      000008                        375 	.ds 1
                                    376 ;--------------------------------------------------------
                                    377 ; external ram data
                                    378 ;--------------------------------------------------------
                                    379 	.area XSEG    (XDATA)
                                    380 ;--------------------------------------------------------
                                    381 ; absolute external ram data
                                    382 ;--------------------------------------------------------
                                    383 	.area XABS    (ABS,XDATA)
                                    384 ;--------------------------------------------------------
                                    385 ; external initialized ram data
                                    386 ;--------------------------------------------------------
                                    387 	.area XISEG   (XDATA)
                                    388 	.area HOME    (CODE)
                                    389 	.area GSINIT0 (CODE)
                                    390 	.area GSINIT1 (CODE)
                                    391 	.area GSINIT2 (CODE)
                                    392 	.area GSINIT3 (CODE)
                                    393 	.area GSINIT4 (CODE)
                                    394 	.area GSINIT5 (CODE)
                                    395 	.area GSINIT  (CODE)
                                    396 	.area GSFINAL (CODE)
                                    397 	.area CSEG    (CODE)
                                    398 ;--------------------------------------------------------
                                    399 ; global & static initialisations
                                    400 ;--------------------------------------------------------
                                    401 	.area HOME    (CODE)
                                    402 	.area GSINIT  (CODE)
                                    403 	.area GSFINAL (CODE)
                                    404 	.area GSINIT  (CODE)
                                    405 ;--------------------------------------------------------
                                    406 ; Home
                                    407 ;--------------------------------------------------------
                                    408 	.area HOME    (CODE)
                                    409 	.area HOME    (CODE)
                                    410 ;--------------------------------------------------------
                                    411 ; code
                                    412 ;--------------------------------------------------------
                                    413 	.area CSEG    (CODE)
                                    414 ;------------------------------------------------------------
                                    415 ;Allocation info for local variables in function 'baudRateToSysclkDivisor'
                                    416 ;------------------------------------------------------------
                                    417 ;	timer-hal.c:47: uint32_t baudRateToSysclkDivisor(uint32_t baudRate) {
                                    418 ;	-----------------------------------------
                                    419 ;	 function baudRateToSysclkDivisor
                                    420 ;	-----------------------------------------
      000000                        421 _baudRateToSysclkDivisor:
                           000007   422 	ar7 = 0x07
                           000006   423 	ar6 = 0x06
                           000005   424 	ar5 = 0x05
                           000004   425 	ar4 = 0x04
                           000003   426 	ar3 = 0x03
                           000002   427 	ar2 = 0x02
                           000001   428 	ar1 = 0x01
                           000000   429 	ar0 = 0x00
      000000 AC 82            [24]  430 	mov	r4,dpl
      000002 AD 83            [24]  431 	mov	r5,dph
      000004 AE F0            [24]  432 	mov	r6,b
      000006 FF               [12]  433 	mov	r7,a
                                    434 ;	timer-hal.c:53: divisor = (MCU_FREQ / baudRate / 32UL);
      000007 78r00            [12]  435 	mov	r0,#__divulong_PARM_2
      000009 EC               [12]  436 	mov	a,r4
      00000A F2               [24]  437 	movx	@r0,a
      00000B ED               [12]  438 	mov	a,r5
      00000C 08               [12]  439 	inc	r0
      00000D F2               [24]  440 	movx	@r0,a
      00000E EE               [12]  441 	mov	a,r6
      00000F 08               [12]  442 	inc	r0
      000010 F2               [24]  443 	movx	@r0,a
      000011 EF               [12]  444 	mov	a,r7
      000012 08               [12]  445 	inc	r0
      000013 F2               [24]  446 	movx	@r0,a
      000014 90 C0 00         [24]  447 	mov	dptr,#0xc000
      000017 75 F0 A8         [24]  448 	mov	b,#0xa8
      00001A E4               [12]  449 	clr	a
      00001B 12r00r00         [24]  450 	lcall	__divulong
      00001E AC 82            [24]  451 	mov	r4,dpl
      000020 AD 83            [24]  452 	mov	r5,dph
      000022 AE F0            [24]  453 	mov	r6,b
      000024 FF               [12]  454 	mov	r7,a
      000025 ED               [12]  455 	mov	a,r5
      000026 C4               [12]  456 	swap	a
      000027 03               [12]  457 	rr	a
      000028 CC               [12]  458 	xch	a,r4
      000029 C4               [12]  459 	swap	a
      00002A 03               [12]  460 	rr	a
      00002B 54 07            [12]  461 	anl	a,#0x07
      00002D 6C               [12]  462 	xrl	a,r4
      00002E CC               [12]  463 	xch	a,r4
      00002F 54 07            [12]  464 	anl	a,#0x07
      000031 CC               [12]  465 	xch	a,r4
      000032 6C               [12]  466 	xrl	a,r4
      000033 CC               [12]  467 	xch	a,r4
      000034 FD               [12]  468 	mov	r5,a
      000035 EE               [12]  469 	mov	a,r6
      000036 C4               [12]  470 	swap	a
      000037 03               [12]  471 	rr	a
      000038 54 F8            [12]  472 	anl	a,#0xf8
      00003A 4D               [12]  473 	orl	a,r5
      00003B FD               [12]  474 	mov	r5,a
      00003C EF               [12]  475 	mov	a,r7
      00003D C4               [12]  476 	swap	a
      00003E 03               [12]  477 	rr	a
      00003F CE               [12]  478 	xch	a,r6
      000040 C4               [12]  479 	swap	a
      000041 03               [12]  480 	rr	a
      000042 54 07            [12]  481 	anl	a,#0x07
      000044 6E               [12]  482 	xrl	a,r6
      000045 CE               [12]  483 	xch	a,r6
      000046 54 07            [12]  484 	anl	a,#0x07
      000048 CE               [12]  485 	xch	a,r6
      000049 6E               [12]  486 	xrl	a,r6
      00004A CE               [12]  487 	xch	a,r6
                                    488 ;	timer-hal.c:62: return divisor;
      00004B 8C 82            [24]  489 	mov	dpl,r4
      00004D 8D 83            [24]  490 	mov	dph,r5
      00004F 8E F0            [24]  491 	mov	b,r6
                                    492 ;	timer-hal.c:63: }
      000051 22               [24]  493 	ret
                                    494 ;------------------------------------------------------------
                                    495 ;Allocation info for local variables in function 'frequencyToSysclkDivisor'
                                    496 ;------------------------------------------------------------
                                    497 ;	timer-hal.c:65: uint32_t frequencyToSysclkDivisor(uint32_t frequency) {
                                    498 ;	-----------------------------------------
                                    499 ;	 function frequencyToSysclkDivisor
                                    500 ;	-----------------------------------------
      000052                        501 _frequencyToSysclkDivisor:
      000052 AC 82            [24]  502 	mov	r4,dpl
      000054 AD 83            [24]  503 	mov	r5,dph
      000056 AE F0            [24]  504 	mov	r6,b
      000058 FF               [12]  505 	mov	r7,a
                                    506 ;	timer-hal.c:66: return MCU_FREQ / frequency;
      000059 78r00            [12]  507 	mov	r0,#__divulong_PARM_2
      00005B EC               [12]  508 	mov	a,r4
      00005C F2               [24]  509 	movx	@r0,a
      00005D ED               [12]  510 	mov	a,r5
      00005E 08               [12]  511 	inc	r0
      00005F F2               [24]  512 	movx	@r0,a
      000060 EE               [12]  513 	mov	a,r6
      000061 08               [12]  514 	inc	r0
      000062 F2               [24]  515 	movx	@r0,a
      000063 EF               [12]  516 	mov	a,r7
      000064 08               [12]  517 	inc	r0
      000065 F2               [24]  518 	movx	@r0,a
      000066 90 C0 00         [24]  519 	mov	dptr,#0xc000
      000069 75 F0 A8         [24]  520 	mov	b,#0xa8
      00006C E4               [12]  521 	clr	a
                                    522 ;	timer-hal.c:67: }
      00006D 02r00r00         [24]  523 	ljmp	__divulong
                                    524 ;------------------------------------------------------------
                                    525 ;Allocation info for local variables in function 'startTimer'
                                    526 ;------------------------------------------------------------
                                    527 ;	timer-hal.c:69: Timer_Status startTimer(Timer timer, uint32_t sysclkDivisor, Timer_Output enableOutput, Timer_Interrupt enableInterrupt, Timer_Control timerControl) {
                                    528 ;	-----------------------------------------
                                    529 ;	 function startTimer
                                    530 ;	-----------------------------------------
      000070                        531 _startTimer:
      000070 AF 82            [24]  532 	mov	r7,dpl
                                    533 ;	timer-hal.c:70: Timer_Status rc = TIMER_FREQUENCY_OK;
      000072 78r07            [12]  534 	mov	r0,#_startTimer_rc_65536_10
      000074 E4               [12]  535 	clr	a
      000075 F2               [24]  536 	movx	@r0,a
                                    537 ;	timer-hal.c:71: uint8_t sysclkDiv1 = 1;
      000076 7D 01            [12]  538 	mov	r5,#0x01
                                    539 ;	timer-hal.c:73: if (sysclkDivisor == 0) {
      000078 78r00            [12]  540 	mov	r0,#_startTimer_PARM_2
      00007A E2               [24]  541 	movx	a,@r0
      00007B F5 F0            [12]  542 	mov	b,a
      00007D 08               [12]  543 	inc	r0
      00007E E2               [24]  544 	movx	a,@r0
      00007F 42 F0            [12]  545 	orl	b,a
      000081 08               [12]  546 	inc	r0
      000082 E2               [24]  547 	movx	a,@r0
      000083 42 F0            [12]  548 	orl	b,a
      000085 08               [12]  549 	inc	r0
      000086 E2               [24]  550 	movx	a,@r0
      000087 45 F0            [12]  551 	orl	a,b
      000089 70 08            [24]  552 	jnz	00107$
                                    553 ;	timer-hal.c:75: rc = TIMER_FREQUENCY_TOO_HIGH;
      00008B 78r07            [12]  554 	mov	r0,#_startTimer_rc_65536_10
      00008D 74 01            [12]  555 	mov	a,#0x01
      00008F F2               [24]  556 	movx	@r0,a
      000090 02r01r08         [24]  557 	ljmp	00108$
      000093                        558 00107$:
                                    559 ;	timer-hal.c:76: } else if (sysclkDivisor >= (COUNTER_MAX * 12UL)) {
      000093 78r00            [12]  560 	mov	r0,#_startTimer_PARM_2
      000095 C3               [12]  561 	clr	c
      000096 08               [12]  562 	inc	r0
      000097 E2               [24]  563 	movx	a,@r0
      000098 94 0C            [12]  564 	subb	a,#0x0c
      00009A 08               [12]  565 	inc	r0
      00009B E2               [24]  566 	movx	a,@r0
      00009C 94 00            [12]  567 	subb	a,#0x00
      00009E 08               [12]  568 	inc	r0
      00009F E2               [24]  569 	movx	a,@r0
      0000A0 94 00            [12]  570 	subb	a,#0x00
      0000A2 40 07            [24]  571 	jc	00104$
                                    572 ;	timer-hal.c:78: rc = TIMER_FREQUENCY_TOO_LOW;
      0000A4 78r07            [12]  573 	mov	r0,#_startTimer_rc_65536_10
      0000A6 74 02            [12]  574 	mov	a,#0x02
      0000A8 F2               [24]  575 	movx	@r0,a
      0000A9 80 5D            [24]  576 	sjmp	00108$
      0000AB                        577 00104$:
                                    578 ;	timer-hal.c:80: if (sysclkDivisor > COUNTER_MAX) {
      0000AB 78r00            [12]  579 	mov	r0,#_startTimer_PARM_2
      0000AD C3               [12]  580 	clr	c
      0000AE E2               [24]  581 	movx	a,@r0
      0000AF F5 F0            [12]  582 	mov	b,a
      0000B1 E4               [12]  583 	clr	a
      0000B2 95 F0            [12]  584 	subb	a,b
      0000B4 08               [12]  585 	inc	r0
      0000B5 E2               [24]  586 	movx	a,@r0
      0000B6 F5 F0            [12]  587 	mov	b,a
      0000B8 74 01            [12]  588 	mov	a,#0x01
      0000BA 95 F0            [12]  589 	subb	a,b
      0000BC 08               [12]  590 	inc	r0
      0000BD E2               [24]  591 	movx	a,@r0
      0000BE F5 F0            [12]  592 	mov	b,a
      0000C0 E4               [12]  593 	clr	a
      0000C1 95 F0            [12]  594 	subb	a,b
      0000C3 08               [12]  595 	inc	r0
      0000C4 E2               [24]  596 	movx	a,@r0
      0000C5 F5 F0            [12]  597 	mov	b,a
      0000C7 E4               [12]  598 	clr	a
      0000C8 95 F0            [12]  599 	subb	a,b
      0000CA 50 3C            [24]  600 	jnc	00108$
                                    601 ;	timer-hal.c:82: sysclkDiv1 = 0;
      0000CC 7D 00            [12]  602 	mov	r5,#0x00
                                    603 ;	timer-hal.c:83: sysclkDivisor /= 12UL;
      0000CE 78r00            [12]  604 	mov	r0,#__divulong_PARM_2
      0000D0 74 0C            [12]  605 	mov	a,#0x0c
      0000D2 F2               [24]  606 	movx	@r0,a
      0000D3 E4               [12]  607 	clr	a
      0000D4 08               [12]  608 	inc	r0
      0000D5 F2               [24]  609 	movx	@r0,a
      0000D6 08               [12]  610 	inc	r0
      0000D7 F2               [24]  611 	movx	@r0,a
      0000D8 08               [12]  612 	inc	r0
      0000D9 F2               [24]  613 	movx	@r0,a
      0000DA 78r00            [12]  614 	mov	r0,#_startTimer_PARM_2
      0000DC E2               [24]  615 	movx	a,@r0
      0000DD F5 82            [12]  616 	mov	dpl,a
      0000DF 08               [12]  617 	inc	r0
      0000E0 E2               [24]  618 	movx	a,@r0
      0000E1 F5 83            [12]  619 	mov	dph,a
      0000E3 08               [12]  620 	inc	r0
      0000E4 E2               [24]  621 	movx	a,@r0
      0000E5 F5 F0            [12]  622 	mov	b,a
      0000E7 08               [12]  623 	inc	r0
      0000E8 E2               [24]  624 	movx	a,@r0
      0000E9 C0 07            [24]  625 	push	ar7
      0000EB C0 05            [24]  626 	push	ar5
      0000ED 12r00r00         [24]  627 	lcall	__divulong
      0000F0 AA 82            [24]  628 	mov	r2,dpl
      0000F2 AB 83            [24]  629 	mov	r3,dph
      0000F4 AC F0            [24]  630 	mov	r4,b
      0000F6 FE               [12]  631 	mov	r6,a
      0000F7 D0 05            [24]  632 	pop	ar5
      0000F9 D0 07            [24]  633 	pop	ar7
      0000FB 78r00            [12]  634 	mov	r0,#_startTimer_PARM_2
      0000FD EA               [12]  635 	mov	a,r2
      0000FE F2               [24]  636 	movx	@r0,a
      0000FF EB               [12]  637 	mov	a,r3
      000100 08               [12]  638 	inc	r0
      000101 F2               [24]  639 	movx	@r0,a
      000102 EC               [12]  640 	mov	a,r4
      000103 08               [12]  641 	inc	r0
      000104 F2               [24]  642 	movx	@r0,a
      000105 EE               [12]  643 	mov	a,r6
      000106 08               [12]  644 	inc	r0
      000107 F2               [24]  645 	movx	@r0,a
      000108                        646 00108$:
                                    647 ;	timer-hal.c:87: if (rc == TIMER_FREQUENCY_OK) {
      000108 78r07            [12]  648 	mov	r0,#_startTimer_rc_65536_10
      00010A E2               [24]  649 	movx	a,@r0
      00010B 60 03            [24]  650 	jz	00195$
      00010D 02r02r05         [24]  651 	ljmp	00129$
      000110                        652 00195$:
                                    653 ;	timer-hal.c:88: uint16_t reloadValue = (uint16_t) (COUNTER_MAX - sysclkDivisor);
      000110 78r00            [12]  654 	mov	r0,#_startTimer_PARM_2
      000112 E2               [24]  655 	movx	a,@r0
      000113 FC               [12]  656 	mov	r4,a
      000114 08               [12]  657 	inc	r0
      000115 E2               [24]  658 	movx	a,@r0
      000116 FE               [12]  659 	mov	r6,a
      000117 E4               [12]  660 	clr	a
      000118 C3               [12]  661 	clr	c
      000119 9C               [12]  662 	subb	a,r4
      00011A FC               [12]  663 	mov	r4,a
      00011B 74 01            [12]  664 	mov	a,#0x01
      00011D 9E               [12]  665 	subb	a,r6
      00011E FE               [12]  666 	mov	r6,a
                                    667 ;	timer-hal.c:90: switch (timer) {
      00011F BF 00 02         [24]  668 	cjne	r7,#0x00,00196$
      000122 80 0E            [24]  669 	sjmp	00109$
      000124                        670 00196$:
      000124 BF 01 02         [24]  671 	cjne	r7,#0x01,00197$
      000127 80 61            [24]  672 	sjmp	00116$
      000129                        673 00197$:
      000129 BF 02 03         [24]  674 	cjne	r7,#0x02,00198$
      00012C 02r01rE1         [24]  675 	ljmp	00123$
      00012F                        676 00198$:
      00012F 02r02r05         [24]  677 	ljmp	00129$
                                    678 ;	timer-hal.c:91: case TIMER0:
      000132                        679 00109$:
                                    680 ;	timer-hal.c:93: AUXR = (AUXR & ~M_T0x12) | ((sysclkDiv1 << P_T0x12) & M_T0x12);
      000132 74 7F            [12]  681 	mov	a,#0x7f
      000134 55 8E            [12]  682 	anl	a,_AUXR
      000136 FF               [12]  683 	mov	r7,a
      000137 8D 03            [24]  684 	mov	ar3,r5
      000139 EB               [12]  685 	mov	a,r3
      00013A 03               [12]  686 	rr	a
      00013B 54 80            [12]  687 	anl	a,#0x80
      00013D FB               [12]  688 	mov	r3,a
      00013E 74 80            [12]  689 	mov	a,#0x80
      000140 5B               [12]  690 	anl	a,r3
      000141 4F               [12]  691 	orl	a,r7
      000142 F5 8E            [12]  692 	mov	_AUXR,a
                                    693 ;	timer-hal.c:96: TMOD &= 0xf0;
      000144 53 89 F0         [24]  694 	anl	_TMOD,#0xf0
                                    695 ;	timer-hal.c:99: TMOD = (TMOD & ~M_T0_GATE) | ((timerControl << P_T0_GATE) & M_T0_GATE);
      000147 74 F7            [12]  696 	mov	a,#0xf7
      000149 55 89            [12]  697 	anl	a,_TMOD
      00014B FF               [12]  698 	mov	r7,a
      00014C 78r06            [12]  699 	mov	r0,#_startTimer_PARM_5
      00014E E2               [24]  700 	movx	a,@r0
      00014F C4               [12]  701 	swap	a
      000150 03               [12]  702 	rr	a
      000151 54 F8            [12]  703 	anl	a,#0xf8
      000153 FB               [12]  704 	mov	r3,a
      000154 74 08            [12]  705 	mov	a,#0x08
      000156 5B               [12]  706 	anl	a,r3
      000157 4F               [12]  707 	orl	a,r7
      000158 F5 89            [12]  708 	mov	_TMOD,a
                                    709 ;	timer-hal.c:103: TMOD |= 2;
      00015A 43 89 02         [24]  710 	orl	_TMOD,#0x02
                                    711 ;	timer-hal.c:105: if (enableOutput == TIMER_OUTPUT_ENABLE) {
      00015D 78r04            [12]  712 	mov	r0,#_startTimer_PARM_3
      00015F E2               [24]  713 	movx	a,@r0
      000160 B4 01 05         [24]  714 	cjne	a,#0x01,00111$
                                    715 ;	timer-hal.c:106: WAKE_CLKO |= M_T0CLKO;
      000163 43 8F 01         [24]  716 	orl	_WAKE_CLKO,#0x01
      000166 80 03            [24]  717 	sjmp	00112$
      000168                        718 00111$:
                                    719 ;	timer-hal.c:108: WAKE_CLKO &= ~M_T0CLKO;
      000168 53 8F FE         [24]  720 	anl	_WAKE_CLKO,#0xfe
      00016B                        721 00112$:
                                    722 ;	timer-hal.c:111: T0H = T0L = reloadValue;
      00016B 8C 07            [24]  723 	mov	ar7,r4
      00016D 8F 8A            [24]  724 	mov	_T0L,r7
      00016F 8F 8C            [24]  725 	mov	_T0H,r7
                                    726 ;	timer-hal.c:122: if (enableInterrupt == TIMER_INTERRUPT_ENABLE) {
      000171 78r05            [12]  727 	mov	r0,#_startTimer_PARM_4
      000173 E2               [24]  728 	movx	a,@r0
      000174 B4 01 05         [24]  729 	cjne	a,#0x01,00114$
                                    730 ;	timer-hal.c:123: IE1 |= M_ET0;
      000177 43 A8 02         [24]  731 	orl	_IE1,#0x02
      00017A 80 03            [24]  732 	sjmp	00115$
      00017C                        733 00114$:
                                    734 ;	timer-hal.c:125: IE1 &= ~M_ET0;
      00017C 53 A8 FD         [24]  735 	anl	_IE1,#0xfd
      00017F                        736 00115$:
                                    737 ;	timer-hal.c:129: TCON = (TCON & ~M_T0IF) | M_T0R;
      00017F 74 DF            [12]  738 	mov	a,#0xdf
      000181 55 88            [12]  739 	anl	a,_TCON
      000183 44 10            [12]  740 	orl	a,#0x10
      000185 F5 88            [12]  741 	mov	_TCON,a
                                    742 ;	timer-hal.c:130: break;
      000187 02r02r05         [24]  743 	ljmp	00129$
                                    744 ;	timer-hal.c:133: case TIMER1:
      00018A                        745 00116$:
                                    746 ;	timer-hal.c:136: TMOD = (TMOD & 0x0f) | (2 << P_T1_M);
      00018A E5 89            [12]  747 	mov	a,_TMOD
      00018C 54 0F            [12]  748 	anl	a,#0x0f
      00018E 44 20            [12]  749 	orl	a,#0x20
      000190 F5 89            [12]  750 	mov	_TMOD,a
                                    751 ;	timer-hal.c:138: if (enableOutput == TIMER_OUTPUT_ENABLE) {
      000192 78r04            [12]  752 	mov	r0,#_startTimer_PARM_3
      000194 E2               [24]  753 	movx	a,@r0
      000195 B4 01 05         [24]  754 	cjne	a,#0x01,00118$
                                    755 ;	timer-hal.c:139: WAKE_CLKO |= M_T1CLKO;
      000198 43 8F 02         [24]  756 	orl	_WAKE_CLKO,#0x02
      00019B 80 03            [24]  757 	sjmp	00119$
      00019D                        758 00118$:
                                    759 ;	timer-hal.c:141: WAKE_CLKO &= ~M_T1CLKO;
      00019D 53 8F FD         [24]  760 	anl	_WAKE_CLKO,#0xfd
      0001A0                        761 00119$:
                                    762 ;	timer-hal.c:145: T1H = T1L = reloadValue;
      0001A0 8C 07            [24]  763 	mov	ar7,r4
      0001A2 8F 8B            [24]  764 	mov	_T1L,r7
      0001A4 8F 8D            [24]  765 	mov	_T1H,r7
                                    766 ;	timer-hal.c:161: TMOD = (TMOD & ~M_T1_GATE) | ((timerControl << P_T1_GATE) & M_T1_GATE);
      0001A6 74 7F            [12]  767 	mov	a,#0x7f
      0001A8 55 89            [12]  768 	anl	a,_TMOD
      0001AA FF               [12]  769 	mov	r7,a
      0001AB 78r06            [12]  770 	mov	r0,#_startTimer_PARM_5
      0001AD E2               [24]  771 	movx	a,@r0
      0001AE 03               [12]  772 	rr	a
      0001AF 54 80            [12]  773 	anl	a,#0x80
      0001B1 FB               [12]  774 	mov	r3,a
      0001B2 74 80            [12]  775 	mov	a,#0x80
      0001B4 5B               [12]  776 	anl	a,r3
      0001B5 4F               [12]  777 	orl	a,r7
      0001B6 F5 89            [12]  778 	mov	_TMOD,a
                                    779 ;	timer-hal.c:164: AUXR = (sysclkDiv1) ? (AUXR | M_T1x12) : (AUXR & ~M_T1x12);
      0001B8 ED               [12]  780 	mov	a,r5
      0001B9 60 07            [24]  781 	jz	00132$
      0001BB 74 40            [12]  782 	mov	a,#0x40
      0001BD 45 8E            [12]  783 	orl	a,_AUXR
      0001BF FF               [12]  784 	mov	r7,a
      0001C0 80 05            [24]  785 	sjmp	00133$
      0001C2                        786 00132$:
      0001C2 74 BF            [12]  787 	mov	a,#0xbf
      0001C4 55 8E            [12]  788 	anl	a,_AUXR
      0001C6 FF               [12]  789 	mov	r7,a
      0001C7                        790 00133$:
      0001C7 8F 8E            [24]  791 	mov	_AUXR,r7
                                    792 ;	timer-hal.c:166: if (enableInterrupt == TIMER_INTERRUPT_ENABLE) {
      0001C9 78r05            [12]  793 	mov	r0,#_startTimer_PARM_4
      0001CB E2               [24]  794 	movx	a,@r0
      0001CC B4 01 05         [24]  795 	cjne	a,#0x01,00121$
                                    796 ;	timer-hal.c:167: IE1 |= M_ET1;
      0001CF 43 A8 08         [24]  797 	orl	_IE1,#0x08
      0001D2 80 03            [24]  798 	sjmp	00122$
      0001D4                        799 00121$:
                                    800 ;	timer-hal.c:169: IE1 &= ~M_ET1;
      0001D4 53 A8 F7         [24]  801 	anl	_IE1,#0xf7
      0001D7                        802 00122$:
                                    803 ;	timer-hal.c:173: TCON = (TCON & ~M_T1IF) | M_T1R;
      0001D7 74 7F            [12]  804 	mov	a,#0x7f
      0001D9 55 88            [12]  805 	anl	a,_TCON
      0001DB 44 40            [12]  806 	orl	a,#0x40
      0001DD F5 88            [12]  807 	mov	_TCON,a
                                    808 ;	timer-hal.c:174: break;
                                    809 ;	timer-hal.c:177: case TIMER2:
      0001DF 80 24            [24]  810 	sjmp	00129$
      0001E1                        811 00123$:
                                    812 ;	timer-hal.c:193: if (enableOutput == TIMER_OUTPUT_ENABLE) {
      0001E1 78r04            [12]  813 	mov	r0,#_startTimer_PARM_3
      0001E3 E2               [24]  814 	movx	a,@r0
      0001E4 B4 01 05         [24]  815 	cjne	a,#0x01,00125$
                                    816 ;	timer-hal.c:194: WAKE_CLKO |= M_BRTCLKO;
      0001E7 43 8F 04         [24]  817 	orl	_WAKE_CLKO,#0x04
      0001EA 80 03            [24]  818 	sjmp	00126$
      0001EC                        819 00125$:
                                    820 ;	timer-hal.c:196: WAKE_CLKO &= ~M_BRTCLKO;
      0001EC 53 8F FB         [24]  821 	anl	_WAKE_CLKO,#0xfb
      0001EF                        822 00126$:
                                    823 ;	timer-hal.c:200: BRT =  reloadValue;
      0001EF 8C 9C            [24]  824 	mov	_BRT,r4
                                    825 ;	timer-hal.c:204: AUXR = (sysclkDiv1) ? (AUXR | M_T2x12) : (AUXR & ~M_T2x12);
      0001F1 ED               [12]  826 	mov	a,r5
      0001F2 60 07            [24]  827 	jz	00134$
      0001F4 74 04            [12]  828 	mov	a,#0x04
      0001F6 45 8E            [12]  829 	orl	a,_AUXR
      0001F8 FF               [12]  830 	mov	r7,a
      0001F9 80 05            [24]  831 	sjmp	00135$
      0001FB                        832 00134$:
      0001FB 74 FB            [12]  833 	mov	a,#0xfb
      0001FD 55 8E            [12]  834 	anl	a,_AUXR
      0001FF FF               [12]  835 	mov	r7,a
      000200                        836 00135$:
      000200 8F 8E            [24]  837 	mov	_AUXR,r7
                                    838 ;	timer-hal.c:220: AUXR |= M_T2R;
      000202 43 8E 10         [24]  839 	orl	_AUXR,#0x10
                                    840 ;	timer-hal.c:282: }
      000205                        841 00129$:
                                    842 ;	timer-hal.c:285: return rc;
      000205 78r07            [12]  843 	mov	r0,#_startTimer_rc_65536_10
      000207 E2               [24]  844 	movx	a,@r0
      000208 F5 82            [12]  845 	mov	dpl,a
                                    846 ;	timer-hal.c:286: }
      00020A 22               [24]  847 	ret
                                    848 ;------------------------------------------------------------
                                    849 ;Allocation info for local variables in function 'startWatchdog'
                                    850 ;------------------------------------------------------------
                                    851 ;	timer-hal.c:288: void startWatchdog(WatchdogPrescaler prescaler, WatchdogIdleMode idleMode) {
                                    852 ;	-----------------------------------------
                                    853 ;	 function startWatchdog
                                    854 ;	-----------------------------------------
      00020B                        855 _startWatchdog:
      00020B AF 82            [24]  856 	mov	r7,dpl
                                    857 ;	timer-hal.c:289: WDT_CONTR = M_EN_WDT | (prescaler << P_WDT_PS)
      00020D 43 07 20         [24]  858 	orl	ar7,#0x20
                                    859 ;	timer-hal.c:290: | (idleMode == WDT_ENABLED_IN_IDLE_MODE ? M_IDL_WDT : 0);
      000210 78r08            [12]  860 	mov	r0,#_startWatchdog_PARM_2
      000212 E2               [24]  861 	movx	a,@r0
      000213 B4 01 06         [24]  862 	cjne	a,#0x01,00103$
      000216 7D 08            [12]  863 	mov	r5,#0x08
      000218 7E 00            [12]  864 	mov	r6,#0x00
      00021A 80 04            [24]  865 	sjmp	00104$
      00021C                        866 00103$:
      00021C 7D 00            [12]  867 	mov	r5,#0x00
      00021E 7E 00            [12]  868 	mov	r6,#0x00
      000220                        869 00104$:
      000220 ED               [12]  870 	mov	a,r5
      000221 4F               [12]  871 	orl	a,r7
      000222 F5 C1            [12]  872 	mov	_WDT_CONTR,a
                                    873 ;	timer-hal.c:291: }
      000224 22               [24]  874 	ret
                                    875 ;------------------------------------------------------------
                                    876 ;Allocation info for local variables in function 'clearWatchdog'
                                    877 ;------------------------------------------------------------
                                    878 ;	timer-hal.c:293: void clearWatchdog() {
                                    879 ;	-----------------------------------------
                                    880 ;	 function clearWatchdog
                                    881 ;	-----------------------------------------
      000225                        882 _clearWatchdog:
                                    883 ;	timer-hal.c:294: WDT_CONTR |= M_CLR_WDT;
      000225 43 C1 10         [24]  884 	orl	_WDT_CONTR,#0x10
                                    885 ;	timer-hal.c:295: }
      000228 22               [24]  886 	ret
                                    887 	.area CSEG    (CODE)
                                    888 	.area CONST   (CODE)
                                    889 	.area XINIT   (CODE)
                                    890 	.area CABS    (ABS,CODE)
